target datalayout = "e-m:e-p270:32:32-p271:32:32-p272:64:64-i64:64-i128:128-f80:128-n8:16:32:64-S128"
target triple = "x86_64-pc-linux-gnu"

%struct.ByteStreamBE = type { ptr, i32, i32 }
%struct.LibRaw_LjpegDecompressor = type <{ %struct.ByteStreamBE, %struct.LibRaw_SOFInfo, i32, i32, i32, [4 x i8], %"class.std::vector.0", i32, [4 x i8] }>
%struct.LibRaw_SOFInfo = type <{ i32, i32, i32, i32, %"class.std::vector", i8, [7 x i8] }>
%"class.std::vector" = type { %"struct.std::_Vector_base" }
%"struct.std::_Vector_base" = type { %"struct.std::_Vector_base<LibRaw_JpegComponentInfo, std::allocator<LibRaw_JpegComponentInfo>>::_Vector_impl" }
%"struct.std::_Vector_base<LibRaw_JpegComponentInfo, std::allocator<LibRaw_JpegComponentInfo>>::_Vector_impl" = type { %"struct.std::_Vector_base<LibRaw_JpegComponentInfo, std::allocator<LibRaw_JpegComponentInfo>>::_Vector_impl_data" }
%"struct.std::_Vector_base<LibRaw_JpegComponentInfo, std::allocator<LibRaw_JpegComponentInfo>>::_Vector_impl_data" = type { ptr, ptr, ptr }
%"class.std::vector.0" = type { %"struct.std::_Vector_base.1" }
%"struct.std::_Vector_base.1" = type { %"struct.std::_Vector_base<HuffTable, std::allocator<HuffTable>>::_Vector_impl" }
%"struct.std::_Vector_base<HuffTable, std::allocator<HuffTable>>::_Vector_impl" = type { %"struct.std::_Vector_base<HuffTable, std::allocator<HuffTable>>::_Vector_impl_data" }
%"struct.std::_Vector_base<HuffTable, std::allocator<HuffTable>>::_Vector_impl_data" = type { ptr, ptr, ptr }

; Function Attrs: mustprogress nounwind uwtable
define linkonce_odr void @_ZNSt15__new_allocatorI24LibRaw_JpegComponentInfoE10deallocateEPS0_m(ptr noundef nonnull align 1 dereferenceable(1) %0, ptr noundef %1, i64 noundef %2) #0 comdat align 2 {
  %4 = alloca ptr, align 8
  %5 = alloca ptr, align 8
  %6 = alloca i64, align 8
  store ptr %0, ptr %4, align 8, !tbaa !159
  store ptr %1, ptr %5, align 8, !tbaa !129
  store i64 %2, ptr %6, align 8, !tbaa !76
  %7 = load ptr, ptr %5, align 8, !tbaa !129
  %8 = load i64, ptr %6, align 8, !tbaa !76
  %9 = mul i64 %8, 20
  call void @_ZdlPvm(ptr noundef %7, i64 noundef %9) #15
  ret void
}

; Function Attrs: mustprogress nounwind uwtable
define linkonce_odr void @_ZNSt15__new_allocatorI24LibRaw_JpegComponentInfoEC2Ev(ptr noundef nonnull align 1 dereferenceable(1) %0) unnamed_addr #0 comdat align 2 {
  %2 = alloca ptr, align 8
  store ptr %0, ptr %2, align 8, !tbaa !159
  ret void
}

; Function Attrs: mustprogress uwtable
define linkonce_odr void @_ZNSt16allocator_traitsISaI24LibRaw_JpegComponentInfoEE10deallocateERS1_PS0_m(ptr noundef nonnull align 1 dereferenceable(1) %0, ptr noundef %1, i64 noundef %2) #1 comdat align 2 {
  %4 = alloca ptr, align 8
  %5 = alloca ptr, align 8
  %6 = alloca i64, align 8
  store ptr %0, ptr %4, align 8, !tbaa !154
  store ptr %1, ptr %5, align 8, !tbaa !129
  store i64 %2, ptr %6, align 8, !tbaa !76
  %7 = load ptr, ptr %4, align 8, !tbaa !154
  %8 = load ptr, ptr %5, align 8, !tbaa !129
  %9 = load i64, ptr %6, align 8, !tbaa !76
  call void @_ZNSt15__new_allocatorI24LibRaw_JpegComponentInfoE10deallocateEPS0_m(ptr noundef nonnull align 1 dereferenceable(1) %7, ptr noundef %8, i64 noundef %9)
  ret void
}

; Function Attrs: mustprogress nounwind uwtable
define linkonce_odr void @_ZNSt12_Destroy_auxILb1EE9__destroyIP24LibRaw_JpegComponentInfoEEvT_S4_(ptr noundef %0, ptr noundef %1) #0 comdat align 2 {
  %3 = alloca ptr, align 8
  %4 = alloca ptr, align 8
  store ptr %0, ptr %3, align 8, !tbaa !129
  store ptr %1, ptr %4, align 8, !tbaa !129
  ret void
}

; Function Attrs: mustprogress nounwind uwtable
define linkonce_odr void @_ZNSt15__new_allocatorI9HuffTableEC2Ev(ptr noundef nonnull align 1 dereferenceable(1) %0) unnamed_addr #0 comdat align 2 {
  %2 = alloca ptr, align 8
  store ptr %0, ptr %2, align 8, !tbaa !170
  ret void
}

; Function Attrs: mustprogress nounwind uwtable
define linkonce_odr void @_ZNSt12_Vector_baseI24LibRaw_JpegComponentInfoSaIS0_EE17_Vector_impl_dataC2Ev(ptr noundef nonnull align 8 dereferenceable(24) %0) unnamed_addr #0 comdat align 2 {
  %2 = alloca ptr, align 8
  store ptr %0, ptr %2, align 8, !tbaa !156
  %3 = load ptr, ptr %2, align 8
  %4 = getelementptr inbounds nuw %"struct.std::_Vector_base<LibRaw_JpegComponentInfo, std::allocator<LibRaw_JpegComponentInfo>>::_Vector_impl_data", ptr %3, i32 0, i32 0
  store ptr null, ptr %4, align 8, !tbaa !114
  %5 = getelementptr inbounds nuw %"struct.std::_Vector_base<LibRaw_JpegComponentInfo, std::allocator<LibRaw_JpegComponentInfo>>::_Vector_impl_data", ptr %3, i32 0, i32 1
  store ptr null, ptr %5, align 8, !tbaa !133
  %6 = getelementptr inbounds nuw %"struct.std::_Vector_base<LibRaw_JpegComponentInfo, std::allocator<LibRaw_JpegComponentInfo>>::_Vector_impl_data", ptr %3, i32 0, i32 2
  store ptr null, ptr %6, align 8, !tbaa !158
  ret void
}

; Function Attrs: mustprogress nounwind uwtable
define linkonce_odr void @_ZNSaI24LibRaw_JpegComponentInfoEC2Ev(ptr noundef nonnull align 1 dereferenceable(1) %0) unnamed_addr #0 comdat align 2 {
  %2 = alloca ptr, align 8
  store ptr %0, ptr %2, align 8, !tbaa !154
  %3 = load ptr, ptr %2, align 8
  call void @_ZNSt15__new_allocatorI24LibRaw_JpegComponentInfoEC2Ev(ptr noundef nonnull align 1 dereferenceable(1) %3) #12
  ret void
}

; Function Attrs: mustprogress nounwind uwtable
define linkonce_odr void @_ZNSt15__new_allocatorI24LibRaw_JpegComponentInfoED2Ev(ptr noundef nonnull align 1 dereferenceable(1) %0) unnamed_addr #0 comdat align 2 {
  %2 = alloca ptr, align 8
  store ptr %0, ptr %2, align 8, !tbaa !159
  ret void
}

; Function Attrs: mustprogress uwtable
define linkonce_odr void @_ZNSt12_Vector_baseI24LibRaw_JpegComponentInfoSaIS0_EE13_M_deallocateEPS0_m(ptr noundef nonnull align 8 dereferenceable(24) %0, ptr noundef %1, i64 noundef %2) #1 comdat align 2 {
  %4 = alloca ptr, align 8
  %5 = alloca ptr, align 8
  %6 = alloca i64, align 8
  store ptr %0, ptr %4, align 8, !tbaa !150
  store ptr %1, ptr %5, align 8, !tbaa !129
  store i64 %2, ptr %6, align 8, !tbaa !76
  %7 = load ptr, ptr %4, align 8
  %8 = load ptr, ptr %5, align 8, !tbaa !129
  %9 = icmp ne ptr %8, null
  br i1 %9, label %10, label %14

10:                                               ; preds = %3
  %11 = getelementptr inbounds nuw %"struct.std::_Vector_base", ptr %7, i32 0, i32 0
  %12 = load ptr, ptr %5, align 8, !tbaa !129
  %13 = load i64, ptr %6, align 8, !tbaa !76
  call void @_ZNSt16allocator_traitsISaI24LibRaw_JpegComponentInfoEE10deallocateERS1_PS0_m(ptr noundef nonnull align 1 dereferenceable(1) %11, ptr noundef %12, i64 noundef %13)
  br label %14

14:                                               ; preds = %10, %3
  ret void
}

; Function Attrs: inlinehint mustprogress uwtable
define linkonce_odr void @_ZSt8_DestroyIP24LibRaw_JpegComponentInfoEvT_S2_(ptr noundef %0, ptr noundef %1) #6 comdat {
  %3 = alloca ptr, align 8
  %4 = alloca ptr, align 8
  store ptr %0, ptr %3, align 8, !tbaa !129
  store ptr %1, ptr %4, align 8, !tbaa !129
  %5 = load ptr, ptr %3, align 8, !tbaa !129
  %6 = load ptr, ptr %4, align 8, !tbaa !129
  call void @_ZNSt12_Destroy_auxILb1EE9__destroyIP24LibRaw_JpegComponentInfoEEvT_S4_(ptr noundef %5, ptr noundef %6)
  ret void
}

; Function Attrs: mustprogress nounwind uwtable
define linkonce_odr void @_ZNSt12_Vector_baseI9HuffTableSaIS0_EE17_Vector_impl_dataC2Ev(ptr noundef nonnull align 8 dereferenceable(24) %0) unnamed_addr #0 comdat align 2 {
  %2 = alloca ptr, align 8
  store ptr %0, ptr %2, align 8, !tbaa !167
  %3 = load ptr, ptr %2, align 8
  %4 = getelementptr inbounds nuw %"struct.std::_Vector_base<HuffTable, std::allocator<HuffTable>>::_Vector_impl_data", ptr %3, i32 0, i32 0
  store ptr null, ptr %4, align 8, !tbaa !59
  %5 = getelementptr inbounds nuw %"struct.std::_Vector_base<HuffTable, std::allocator<HuffTable>>::_Vector_impl_data", ptr %3, i32 0, i32 1
  store ptr null, ptr %5, align 8, !tbaa !60
  %6 = getelementptr inbounds nuw %"struct.std::_Vector_base<HuffTable, std::allocator<HuffTable>>::_Vector_impl_data", ptr %3, i32 0, i32 2
  store ptr null, ptr %6, align 8, !tbaa !169
  ret void
}

; Function Attrs: mustprogress nounwind uwtable
define linkonce_odr void @_ZNSaI9HuffTableEC2Ev(ptr noundef nonnull align 1 dereferenceable(1) %0) unnamed_addr #0 comdat align 2 {
  %2 = alloca ptr, align 8
  store ptr %0, ptr %2, align 8, !tbaa !165
  %3 = load ptr, ptr %2, align 8
  call void @_ZNSt15__new_allocatorI9HuffTableEC2Ev(ptr noundef nonnull align 1 dereferenceable(1) %3) #12
  ret void
}

; Function Attrs: mustprogress nounwind uwtable
define linkonce_odr void @_ZNSt12_Vector_baseI24LibRaw_JpegComponentInfoSaIS0_EE12_Vector_implC2Ev(ptr noundef nonnull align 8 dereferenceable(24) %0) unnamed_addr #0 comdat align 2 {
  %2 = alloca ptr, align 8
  store ptr %0, ptr %2, align 8, !tbaa !152
  %3 = load ptr, ptr %2, align 8
  call void @_ZNSaI24LibRaw_JpegComponentInfoEC2Ev(ptr noundef nonnull align 1 dereferenceable(1) %3) #12
  call void @_ZNSt12_Vector_baseI24LibRaw_JpegComponentInfoSaIS0_EE17_Vector_impl_dataC2Ev(ptr noundef nonnull align 8 dereferenceable(24) %3) #12
  ret void
}

; Function Attrs: noinline noreturn nounwind uwtable
define linkonce_odr hidden void @__clang_call_terminate(ptr noundef %0) #7 comdat {
  %2 = call ptr @__cxa_begin_catch(ptr %0) #12
  call void @_ZSt9terminatev() #13
  unreachable
}

; Function Attrs: mustprogress nounwind uwtable
define linkonce_odr void @_ZNSt12_Vector_baseI24LibRaw_JpegComponentInfoSaIS0_EED2Ev(ptr noundef nonnull align 8 dereferenceable(24) %0) unnamed_addr #0 comdat align 2 personality ptr @__gxx_personality_v0 {
  %2 = alloca ptr, align 8
  store ptr %0, ptr %2, align 8, !tbaa !150
  %3 = load ptr, ptr %2, align 8
  %4 = getelementptr inbounds nuw %"struct.std::_Vector_base", ptr %3, i32 0, i32 0
  %5 = getelementptr inbounds nuw %"struct.std::_Vector_base<LibRaw_JpegComponentInfo, std::allocator<LibRaw_JpegComponentInfo>>::_Vector_impl_data", ptr %4, i32 0, i32 0
  %6 = load ptr, ptr %5, align 8, !tbaa !114
  %7 = getelementptr inbounds nuw %"struct.std::_Vector_base", ptr %3, i32 0, i32 0
  %8 = getelementptr inbounds nuw %"struct.std::_Vector_base<LibRaw_JpegComponentInfo, std::allocator<LibRaw_JpegComponentInfo>>::_Vector_impl_data", ptr %7, i32 0, i32 2
  %9 = load ptr, ptr %8, align 8, !tbaa !158
  %10 = getelementptr inbounds nuw %"struct.std::_Vector_base", ptr %3, i32 0, i32 0
  %11 = getelementptr inbounds nuw %"struct.std::_Vector_base<LibRaw_JpegComponentInfo, std::allocator<LibRaw_JpegComponentInfo>>::_Vector_impl_data", ptr %10, i32 0, i32 0
  %12 = load ptr, ptr %11, align 8, !tbaa !114
  %13 = ptrtoint ptr %9 to i64
  %14 = ptrtoint ptr %12 to i64
  %15 = sub i64 %13, %14
  %16 = sdiv exact i64 %15, 20
  invoke void @_ZNSt12_Vector_baseI24LibRaw_JpegComponentInfoSaIS0_EE13_M_deallocateEPS0_m(ptr noundef nonnull align 8 dereferenceable(24) %3, ptr noundef %6, i64 noundef %16)
          to label %17 unwind label %19

17:                                               ; preds = %1
  %18 = getelementptr inbounds nuw %"struct.std::_Vector_base", ptr %3, i32 0, i32 0
  call void @_ZNSt15__new_allocatorI24LibRaw_JpegComponentInfoED2Ev(ptr noundef nonnull align 8 dereferenceable(24) %18) #12
  ret void

19:                                               ; preds = %1
  %20 = landingpad { ptr, i32 }
          catch ptr null
  %21 = extractvalue { ptr, i32 } %20, 0
  call void @__clang_call_terminate(ptr %21) #13
  unreachable
}

; Function Attrs: inlinehint mustprogress uwtable
define linkonce_odr void @_ZSt8_DestroyIP24LibRaw_JpegComponentInfoS0_EvT_S2_RSaIT0_E(ptr noundef %0, ptr noundef %1, ptr noundef nonnull align 1 dereferenceable(1) %2) #6 comdat {
  %4 = alloca ptr, align 8
  %5 = alloca ptr, align 8
  %6 = alloca ptr, align 8
  store ptr %0, ptr %4, align 8, !tbaa !129
  store ptr %1, ptr %5, align 8, !tbaa !129
  store ptr %2, ptr %6, align 8, !tbaa !154
  %7 = load ptr, ptr %4, align 8, !tbaa !129
  %8 = load ptr, ptr %5, align 8, !tbaa !129
  call void @_ZSt8_DestroyIP24LibRaw_JpegComponentInfoEvT_S2_(ptr noundef %7, ptr noundef %8)
  ret void
}

; Function Attrs: mustprogress nounwind uwtable
define linkonce_odr noundef nonnull align 1 dereferenceable(1) ptr @_ZNSt12_Vector_baseI24LibRaw_JpegComponentInfoSaIS0_EE19_M_get_Tp_allocatorEv(ptr noundef nonnull align 8 dereferenceable(24) %0) #0 comdat align 2 {
  %2 = alloca ptr, align 8
  store ptr %0, ptr %2, align 8, !tbaa !150
  %3 = load ptr, ptr %2, align 8
  %4 = getelementptr inbounds nuw %"struct.std::_Vector_base", ptr %3, i32 0, i32 0
  ret ptr %4
}

; Function Attrs: mustprogress nounwind uwtable
define linkonce_odr void @_ZNSt12_Vector_baseI9HuffTableSaIS0_EE12_Vector_implC2Ev(ptr noundef nonnull align 8 dereferenceable(24) %0) unnamed_addr #0 comdat align 2 {
  %2 = alloca ptr, align 8
  store ptr %0, ptr %2, align 8, !tbaa !163
  %3 = load ptr, ptr %2, align 8
  call void @_ZNSaI9HuffTableEC2Ev(ptr noundef nonnull align 1 dereferenceable(1) %3) #12
  call void @_ZNSt12_Vector_baseI9HuffTableSaIS0_EE17_Vector_impl_dataC2Ev(ptr noundef nonnull align 8 dereferenceable(24) %3) #12
  ret void
}

; Function Attrs: mustprogress nounwind uwtable
define linkonce_odr void @_ZNSt12_Vector_baseI24LibRaw_JpegComponentInfoSaIS0_EEC2Ev(ptr noundef nonnull align 8 dereferenceable(24) %0) unnamed_addr #0 comdat align 2 {
  %2 = alloca ptr, align 8
  store ptr %0, ptr %2, align 8, !tbaa !150
  %3 = load ptr, ptr %2, align 8
  %4 = getelementptr inbounds nuw %"struct.std::_Vector_base", ptr %3, i32 0, i32 0
  call void @_ZNSt12_Vector_baseI24LibRaw_JpegComponentInfoSaIS0_EE12_Vector_implC2Ev(ptr noundef nonnull align 8 dereferenceable(24) %4) #12
  ret void
}

; Function Attrs: mustprogress nounwind uwtable
define linkonce_odr void @_ZNSt6vectorI24LibRaw_JpegComponentInfoSaIS0_EED2Ev(ptr noundef nonnull align 8 dereferenceable(24) %0) unnamed_addr #0 comdat align 2 personality ptr @__gxx_personality_v0 {
  %2 = alloca ptr, align 8
  store ptr %0, ptr %2, align 8, !tbaa !112
  %3 = load ptr, ptr %2, align 8
  %4 = getelementptr inbounds nuw %"struct.std::_Vector_base", ptr %3, i32 0, i32 0
  %5 = getelementptr inbounds nuw %"struct.std::_Vector_base<LibRaw_JpegComponentInfo, std::allocator<LibRaw_JpegComponentInfo>>::_Vector_impl_data", ptr %4, i32 0, i32 0
  %6 = load ptr, ptr %5, align 8, !tbaa !114
  %7 = getelementptr inbounds nuw %"struct.std::_Vector_base", ptr %3, i32 0, i32 0
  %8 = getelementptr inbounds nuw %"struct.std::_Vector_base<LibRaw_JpegComponentInfo, std::allocator<LibRaw_JpegComponentInfo>>::_Vector_impl_data", ptr %7, i32 0, i32 1
  %9 = load ptr, ptr %8, align 8, !tbaa !133
  %10 = call noundef nonnull align 1 dereferenceable(1) ptr @_ZNSt12_Vector_baseI24LibRaw_JpegComponentInfoSaIS0_EE19_M_get_Tp_allocatorEv(ptr noundef nonnull align 8 dereferenceable(24) %3) #12
  invoke void @_ZSt8_DestroyIP24LibRaw_JpegComponentInfoS0_EvT_S2_RSaIT0_E(ptr noundef %6, ptr noundef %9, ptr noundef nonnull align 1 dereferenceable(1) %10)
          to label %11 unwind label %12

11:                                               ; preds = %1
  call void @_ZNSt12_Vector_baseI24LibRaw_JpegComponentInfoSaIS0_EED2Ev(ptr noundef nonnull align 8 dereferenceable(24) %3) #12
  ret void

12:                                               ; preds = %1
  %13 = landingpad { ptr, i32 }
          catch ptr null
  %14 = extractvalue { ptr, i32 } %13, 0
  call void @__clang_call_terminate(ptr %14) #13
  unreachable
}

; Function Attrs: mustprogress nounwind uwtable
define linkonce_odr void @_ZNSt12_Vector_baseI9HuffTableSaIS0_EEC2Ev(ptr noundef nonnull align 8 dereferenceable(24) %0) unnamed_addr #0 comdat align 2 {
  %2 = alloca ptr, align 8
  store ptr %0, ptr %2, align 8, !tbaa !161
  %3 = load ptr, ptr %2, align 8
  %4 = getelementptr inbounds nuw %"struct.std::_Vector_base.1", ptr %3, i32 0, i32 0
  call void @_ZNSt12_Vector_baseI9HuffTableSaIS0_EE12_Vector_implC2Ev(ptr noundef nonnull align 8 dereferenceable(24) %4) #12
  ret void
}

; Function Attrs: mustprogress nounwind uwtable
define linkonce_odr void @_ZNSt6vectorI24LibRaw_JpegComponentInfoSaIS0_EEC2Ev(ptr noundef nonnull align 8 dereferenceable(24) %0) unnamed_addr #0 comdat align 2 {
  %2 = alloca ptr, align 8
  store ptr %0, ptr %2, align 8, !tbaa !112
  %3 = load ptr, ptr %2, align 8
  call void @_ZNSt12_Vector_baseI24LibRaw_JpegComponentInfoSaIS0_EEC2Ev(ptr noundef nonnull align 8 dereferenceable(24) %3) #12
  ret void
}

; Function Attrs: inlinehint mustprogress nounwind uwtable
define linkonce_odr void @_ZN14LibRaw_SOFInfoD2Ev(ptr noundef nonnull align 8 dereferenceable(41) %0) unnamed_addr #2 comdat align 2 {
  %2 = alloca ptr, align 8
  store ptr %0, ptr %2, align 8, !tbaa !42
  %3 = load ptr, ptr %2, align 8
  %4 = getelementptr inbounds nuw %struct.LibRaw_SOFInfo, ptr %3, i32 0, i32 4
  call void @_ZNSt6vectorI24LibRaw_JpegComponentInfoSaIS0_EED2Ev(ptr noundef nonnull align 8 dereferenceable(24) %4) #12
  ret void
}

; Function Attrs: mustprogress nounwind uwtable
define linkonce_odr void @_ZNSt6vectorI9HuffTableSaIS0_EEC2Ev(ptr noundef nonnull align 8 dereferenceable(24) %0) unnamed_addr #0 comdat align 2 {
  %2 = alloca ptr, align 8
  store ptr %0, ptr %2, align 8, !tbaa !49
  %3 = load ptr, ptr %2, align 8
  call void @_ZNSt12_Vector_baseI9HuffTableSaIS0_EEC2Ev(ptr noundef nonnull align 8 dereferenceable(24) %3) #12
  ret void
}

; Function Attrs: mustprogress nounwind uwtable
define linkonce_odr void @_ZN14LibRaw_SOFInfoC2Ev(ptr noundef nonnull align 8 dereferenceable(41) %0) unnamed_addr #0 comdat align 2 {
  %2 = alloca ptr, align 8
  store ptr %0, ptr %2, align 8, !tbaa !42
  %3 = load ptr, ptr %2, align 8
  %4 = getelementptr inbounds nuw %struct.LibRaw_SOFInfo, ptr %3, i32 0, i32 0
  store i32 0, ptr %4, align 8, !tbaa !44
  %5 = getelementptr inbounds nuw %struct.LibRaw_SOFInfo, ptr %3, i32 0, i32 1
  store i32 0, ptr %5, align 4, !tbaa !45
  %6 = getelementptr inbounds nuw %struct.LibRaw_SOFInfo, ptr %3, i32 0, i32 2
  store i32 0, ptr %6, align 8, !tbaa !46
  %7 = getelementptr inbounds nuw %struct.LibRaw_SOFInfo, ptr %3, i32 0, i32 3
  store i32 0, ptr %7, align 4, !tbaa !47
  %8 = getelementptr inbounds nuw %struct.LibRaw_SOFInfo, ptr %3, i32 0, i32 4
  call void @_ZNSt6vectorI24LibRaw_JpegComponentInfoSaIS0_EEC2Ev(ptr noundef nonnull align 8 dereferenceable(24) %8) #12
  %9 = getelementptr inbounds nuw %struct.LibRaw_SOFInfo, ptr %3, i32 0, i32 5
  store i8 0, ptr %9, align 8, !tbaa !48
  ret void
}

; Function Attrs: mustprogress nounwind uwtable
define linkonce_odr void @_ZN12ByteStreamBEC2EPhj(ptr noundef nonnull align 8 dereferenceable(16) %0, ptr noundef %1, i32 noundef %2) unnamed_addr #0 comdat align 2 {
  %4 = alloca ptr, align 8
  %5 = alloca ptr, align 8
  %6 = alloca i32, align 4
  store ptr %0, ptr %4, align 8, !tbaa !6
  store ptr %1, ptr %5, align 8, !tbaa !22
  store i32 %2, ptr %6, align 4, !tbaa !23
  %7 = load ptr, ptr %4, align 8
  %8 = getelementptr inbounds nuw %struct.ByteStreamBE, ptr %7, i32 0, i32 0
  %9 = load ptr, ptr %5, align 8, !tbaa !22
  store ptr %9, ptr %8, align 8, !tbaa !16
  %10 = getelementptr inbounds nuw %struct.ByteStreamBE, ptr %7, i32 0, i32 1
  %11 = load i32, ptr %6, align 4, !tbaa !23
  store i32 %11, ptr %10, align 8, !tbaa !15
  %12 = getelementptr inbounds nuw %struct.ByteStreamBE, ptr %7, i32 0, i32 2
  store i32 0, ptr %12, align 4, !tbaa !11
  ret void
}

; Function Attrs: mustprogress uwtable
define void @_ZN24LibRaw_LjpegDecompressorC2EPhj(ptr noundef nonnull align 8 dereferenceable(108) %0, ptr noundef %1, i32 noundef %2) unnamed_addr #1 align 2 personality ptr @__gxx_personality_v0 {
  %4 = alloca ptr, align 8
  %5 = alloca ptr, align 8
  %6 = alloca i32, align 4
  %7 = alloca ptr, align 8
  %8 = alloca i32, align 4
  store ptr %0, ptr %4, align 8, !tbaa !20
  store ptr %1, ptr %5, align 8, !tbaa !22
  store i32 %2, ptr %6, align 4, !tbaa !23
  %9 = load ptr, ptr %4, align 8
  %10 = getelementptr inbounds nuw %struct.LibRaw_LjpegDecompressor, ptr %9, i32 0, i32 0
  %11 = load ptr, ptr %5, align 8, !tbaa !22
  %12 = load i32, ptr %6, align 4, !tbaa !23
  call void @_ZN12ByteStreamBEC2EPhj(ptr noundef nonnull align 8 dereferenceable(16) %10, ptr noundef %11, i32 noundef %12)
  %13 = getelementptr inbounds nuw %struct.LibRaw_LjpegDecompressor, ptr %9, i32 0, i32 1
  call void @_ZN14LibRaw_SOFInfoC2Ev(ptr noundef nonnull align 8 dereferenceable(41) %13)
  %14 = getelementptr inbounds nuw %struct.LibRaw_LjpegDecompressor, ptr %9, i32 0, i32 6
  call void @_ZNSt6vectorI9HuffTableSaIS0_EEC2Ev(ptr noundef nonnull align 8 dereferenceable(24) %14) #12
  %15 = getelementptr inbounds nuw %struct.LibRaw_LjpegDecompressor, ptr %9, i32 0, i32 7
  store i32 1, ptr %15, align 8, !tbaa !26
  invoke void @_ZN24LibRaw_LjpegDecompressor10initializeEbb(ptr noundef nonnull align 8 dereferenceable(108) %9, i1 noundef zeroext false, i1 noundef zeroext false)
          to label %16 unwind label %17

16:                                               ; preds = %3
  ret void

17:                                               ; preds = %3
  %18 = landingpad { ptr, i32 }
          cleanup
  %19 = extractvalue { ptr, i32 } %18, 0
  store ptr %19, ptr %7, align 8
  %20 = extractvalue { ptr, i32 } %18, 1
  store i32 %20, ptr %8, align 4
  call void @_ZNSt6vectorI9HuffTableSaIS0_EED2Ev(ptr noundef nonnull align 8 dereferenceable(24) %14) #12
  call void @_ZN14LibRaw_SOFInfoD2Ev(ptr noundef nonnull align 8 dereferenceable(41) %13) #12
  br label %21

21:                                               ; preds = %17
  %22 = load ptr, ptr %7, align 8
  %23 = load i32, ptr %8, align 4
  %24 = insertvalue { ptr, i32 } poison, ptr %22, 0
  %25 = insertvalue { ptr, i32 } %24, i32 %23, 1
  resume { ptr, i32 } %25
}