; Function Attrs: mustprogress uwtable
define void @_ZN24LibRaw_LjpegDecompressorC2EPhj(ptr noundef nonnull align 8 dereferenceable(108) initializes((0, 57), (80, 108)) %0, ptr noundef %1, i32 noundef %2) unnamed_addr #1 align 2 personality ptr @__gxx_personality_v0 {
  store ptr %1, ptr %0, align 8, !tbaa !14
  %4 = getelementptr inbounds nuw i8, ptr %0, i64 8
  store i32 %2, ptr %4, align 8, !tbaa !13
  %5 = getelementptr inbounds nuw i8, ptr %0, i64 12
  %6 = getelementptr inbounds nuw i8, ptr %0, i64 80
  tail call void @llvm.memset.p0.i64(ptr noundef nonnull align 8 dereferenceable(24) %6, i8 0, i64 24, i1 false)
  %7 = getelementptr inbounds nuw i8, ptr %0, i64 104
  tail call void @llvm.memset.p0.i64(ptr noundef nonnull align 4 dereferenceable(45) %5, i8 0, i64 45, i1 false)
  store i32 1, ptr %7, align 8, !tbaa !18
  invoke void @_ZN24LibRaw_LjpegDecompressor10initializeEbb(ptr noundef nonnull align 8 dereferenceable(108) %0, i1 noundef zeroext false, i1 noundef zeroext false)
          to label %8 unwind label %9

8:                                                ; preds = %3
  ret void

9:                                                ; preds = %3
  %10 = landingpad { ptr, i32 }
          cleanup
  tail call void @_ZNSt6vectorI9HuffTableSaIS0_EED2Ev(ptr noundef nonnull align 8 dereferenceable(24) %6) #17
  %11 = getelementptr inbounds nuw i8, ptr %0, i64 32
  %12 = load ptr, ptr %11, align 8, !tbaa !33
  %.not.i.i.i.i = icmp eq ptr %12, null
  br i1 %.not.i.i.i.i, label %_ZN14LibRaw_SOFInfoD2Ev.exit, label %13

13:                                               ; preds = %9
  %14 = getelementptr inbounds nuw i8, ptr %0, i64 48
  %15 = load ptr, ptr %14, align 8, !tbaa !34
  %16 = ptrtoint ptr %15 to i64
  %17 = ptrtoint ptr %12 to i64
  %18 = sub i64 %16, %17
  tail call void @_ZdlPvm(ptr noundef nonnull %12, i64 noundef %18) #18
  br label %_ZN14LibRaw_SOFInfoD2Ev.exit

_ZN14LibRaw_SOFInfoD2Ev.exit:                     ; preds = %9, %13
  resume { ptr, i32 } %10
}